target datalayout = "e-m:e-p270:32:32-p271:32:32-p272:64:64-i64:64-i128:128-f80:128-n8:16:32:64-S128"
target triple = "x86_64-pc-linux-gnu"

@.str = private unnamed_addr constant [99 x i8] c"generated/home/dtcxzyw/WorkSpace/Projects/compilers/llvm-opt-benchmark/bench/hdf5/hdf5/src/H5Fio.c\00", align 1
@H5E_IO_g = external global i64, align 8
@__func__.H5F_get_checksums = private unnamed_addr constant [18 x i8] c"H5F_get_checksums\00", align 1
@H5E_BADVALUE_g = external global i64, align 8
@.str.12 = private unnamed_addr constant [41 x i8] c"checksum buffer is smaller than expected\00", align 1

; Function Attrs: nounwind uwtable
define i32 @H5F_get_checksums(ptr noundef %0, i64 noundef %1, ptr noundef %2, ptr noundef %3) #0 {
  %5 = alloca ptr, align 8
  %6 = alloca i64, align 8
  %7 = alloca ptr, align 8
  %8 = alloca ptr, align 8
  %9 = alloca i32, align 4
  %10 = alloca i8, align 1
  %11 = alloca ptr, align 8
  store ptr %0, ptr %5, align 8
  store i64 %1, ptr %6, align 8
  store ptr %2, ptr %7, align 8
  store ptr %3, ptr %8, align 8
  store i32 0, ptr %9, align 4
  store i8 0, ptr %10, align 1
  %12 = load i64, ptr %6, align 8
  %13 = icmp ult i64 %12, 4
  br i1 %13, label %14, label %29

14:                                               ; preds = %4
  br label %15

15:                                               ; preds = %14
  br label %16

16:                                               ; preds = %15
  br label %17

17:                                               ; preds = %16
  %18 = load i64, ptr @H5E_IO_g, align 8
  %19 = load i64, ptr @H5E_BADVALUE_g, align 8
  %20 = call i32 (ptr, ptr, i32, i64, i64, ptr, ...) @H5E_printf_stack(ptr noundef @.str, ptr noundef @__func__.H5F_get_checksums, i32 noundef 511, i64 noundef %18, i64 noundef %19, ptr noundef @.str.12)
  br label %21

21:                                               ; preds = %17
  store i8 1, ptr %10, align 1
  %22 = load i8, ptr %10, align 1
  %23 = trunc i8 %22 to i1
  %24 = zext i1 %23 to i8
  store i8 %24, ptr %10, align 1
  br label %25

25:                                               ; preds = %21
  br label %26

26:                                               ; preds = %25
  store i32 -1, ptr %9, align 4
  br label %86

27:                                               ; No predecessors!
  br label %28

28:                                               ; preds = %27
  br label %29

29:                                               ; preds = %28, %4
  %30 = load ptr, ptr %7, align 8
  %31 = icmp ne ptr %30, null
  br i1 %31, label %32, label %76

32:                                               ; preds = %29
  %33 = load ptr, ptr %5, align 8
  %34 = load i64, ptr %6, align 8
  %35 = getelementptr inbounds i8, ptr %33, i64 %34
  %36 = getelementptr inbounds i8, ptr %35, i64 -4
  store ptr %36, ptr %11, align 8
  br label %37

37:                                               ; preds = %32
  %38 = load ptr, ptr %11, align 8
  %39 = load i8, ptr %38, align 1
  %40 = zext i8 %39 to i32
  %41 = and i32 %40, 255
  %42 = load ptr, ptr %7, align 8
  store i32 %41, ptr %42, align 4
  %43 = load ptr, ptr %11, align 8
  %44 = getelementptr inbounds i8, ptr %43, i32 1
  store ptr %44, ptr %11, align 8
  %45 = load ptr, ptr %11, align 8
  %46 = load i8, ptr %45, align 1
  %47 = zext i8 %46 to i32
  %48 = and i32 %47, 255
  %49 = shl i32 %48, 8
  %50 = load ptr, ptr %7, align 8
  %51 = load i32, ptr %50, align 4
  %52 = or i32 %51, %49
  store i32 %52, ptr %50, align 4
  %53 = load ptr, ptr %11, align 8
  %54 = getelementptr inbounds i8, ptr %53, i32 1
  store ptr %54, ptr %11, align 8
  %55 = load ptr, ptr %11, align 8
  %56 = load i8, ptr %55, align 1
  %57 = zext i8 %56 to i32
  %58 = and i32 %57, 255
  %59 = shl i32 %58, 16
  %60 = load ptr, ptr %7, align 8
  %61 = load i32, ptr %60, align 4
  %62 = or i32 %61, %59
  store i32 %62, ptr %60, align 4
  %63 = load ptr, ptr %11, align 8
  %64 = getelementptr inbounds i8, ptr %63, i32 1
  store ptr %64, ptr %11, align 8
  %65 = load ptr, ptr %11, align 8
  %66 = load i8, ptr %65, align 1
  %67 = zext i8 %66 to i32
  %68 = and i32 %67, 255
  %69 = shl i32 %68, 24
  %70 = load ptr, ptr %7, align 8
  %71 = load i32, ptr %70, align 4
  %72 = or i32 %71, %69
  store i32 %72, ptr %70, align 4
  %73 = load ptr, ptr %11, align 8
  %74 = getelementptr inbounds i8, ptr %73, i32 1
  store ptr %74, ptr %11, align 8
  br label %75

75:                                               ; preds = %37
  br label %76

76:                                               ; preds = %75, %29
  %77 = load ptr, ptr %8, align 8
  %78 = icmp ne ptr %77, null
  br i1 %78, label %79, label %85

79:                                               ; preds = %76
  %80 = load ptr, ptr %5, align 8
  %81 = load i64, ptr %6, align 8
  %82 = sub i64 %81, 4
  %83 = call i32 @H5_checksum_metadata(ptr noundef %80, i64 noundef %82, i32 noundef 0)
  %84 = load ptr, ptr %8, align 8
  store i32 %83, ptr %84, align 4
  br label %85

85:                                               ; preds = %79, %76
  br label %86

86:                                               ; preds = %85, %26
  %87 = load i32, ptr %9, align 4
  ret i32 %87
}