; Function Attrs: nounwind uwtable
define range(i32 -1, 1) i32 @H5F_get_checksums(ptr noundef %0, i64 noundef %1, ptr noundef writeonly %2, ptr noundef writeonly %3) local_unnamed_addr #0 {
  %5 = icmp ult i64 %1, 4
  br i1 %5, label %6, label %10

6:                                                ; preds = %4
  %7 = load i64, ptr @H5E_IO_g, align 8
  %8 = load i64, ptr @H5E_BADVALUE_g, align 8
  %9 = tail call i32 (ptr, ptr, i32, i64, i64, ptr, ...) @H5E_printf_stack(ptr noundef nonnull @.str, ptr noundef nonnull @__func__.H5F_get_checksums, i32 noundef 511, i64 noundef %7, i64 noundef %8, ptr noundef nonnull @.str.12) #2
  br label %35

10:                                               ; preds = %4
  %.not = icmp eq ptr %2, null
  br i1 %.not, label %31, label %11

11:                                               ; preds = %10
  %12 = getelementptr inbounds i8, ptr %0, i64 %1
  %13 = getelementptr inbounds i8, ptr %12, i64 -4
  %14 = load i8, ptr %13, align 1
  %15 = zext i8 %14 to i32
  store i32 %15, ptr %2, align 4
  %16 = getelementptr inbounds i8, ptr %12, i64 -3
  %17 = load i8, ptr %16, align 1
  %18 = zext i8 %17 to i32
  %19 = shl nuw nsw i32 %18, 8
  %20 = or disjoint i32 %19, %15
  store i32 %20, ptr %2, align 4
  %21 = getelementptr inbounds i8, ptr %12, i64 -2
  %22 = load i8, ptr %21, align 1
  %23 = zext i8 %22 to i32
  %24 = shl nuw nsw i32 %23, 16
  %25 = or disjoint i32 %24, %20
  store i32 %25, ptr %2, align 4
  %26 = getelementptr inbounds i8, ptr %12, i64 -1
  %27 = load i8, ptr %26, align 1
  %28 = zext i8 %27 to i32
  %29 = shl nuw i32 %28, 24
  %30 = or disjoint i32 %29, %25
  store i32 %30, ptr %2, align 4
  br label %31

31:                                               ; preds = %11, %10
  %.not24 = icmp eq ptr %3, null
  br i1 %.not24, label %35, label %32

32:                                               ; preds = %31
  %33 = add i64 %1, -4
  %34 = tail call i32 @H5_checksum_metadata(ptr noundef %0, i64 noundef %33, i32 noundef 0) #2
  store i32 %34, ptr %3, align 4
  br label %35

35:                                               ; preds = %31, %32, %6
  %.0 = phi i32 [ -1, %6 ], [ 0, %32 ], [ 0, %31 ]
  ret i32 %.0
}